; Function Attrs: nounwind uwtable
define ptr @l_Array_forIn_x27Unsafe_loop___at_Lean_Server_dedupReferences___spec__8___boxed(ptr noundef %0, ptr noundef %1, ptr noundef %2, ptr noundef %3, ptr noundef %4, ptr noundef %5, ptr noundef %6, ptr noundef %7, ptr noundef %8, ptr noundef %9) local_unnamed_addr #0 {
  %11 = ptrtoint ptr %1 to i64
  %12 = lshr i64 %11, 1
  %13 = trunc i64 %12 to i8
  %14 = and i64 %11, 1
  %.not = icmp eq i64 %14, 0
  br i1 %.not, label %15, label %lean_dec.exit27

15:                                               ; preds = %10
  %16 = load i32, ptr %1, align 4, !tbaa !8
  %17 = icmp sgt i32 %16, 1
  br i1 %17, label %18, label %20, !prof !11

18:                                               ; preds = %15
  %19 = add nsw i32 %16, -1
  store i32 %19, ptr %1, align 4, !tbaa !8
  br label %lean_dec.exit27

20:                                               ; preds = %15
  %.not.i = icmp eq i32 %16, 0
  br i1 %.not.i, label %lean_dec.exit27, label %21

21:                                               ; preds = %20
  tail call void @lean_dec_ref_cold(ptr noundef nonnull %1) #8
  br label %lean_dec.exit27

lean_dec.exit27:                                  ; preds = %21, %20, %18, %10
  %22 = getelementptr i8, ptr %7, i64 8
  %.val42 = load i64, ptr %22, align 8, !tbaa !13
  %23 = ptrtoint ptr %7 to i64
  %24 = and i64 %23, 1
  %.not43 = icmp eq i64 %24, 0
  br i1 %.not43, label %25, label %lean_dec.exit26

25:                                               ; preds = %lean_dec.exit27
  %26 = load i32, ptr %7, align 4, !tbaa !8
  %27 = icmp sgt i32 %26, 1
  br i1 %27, label %28, label %30, !prof !11

28:                                               ; preds = %25
  %29 = add nsw i32 %26, -1
  store i32 %29, ptr %7, align 4, !tbaa !8
  br label %lean_dec.exit26

30:                                               ; preds = %25
  %.not.i28 = icmp eq i32 %26, 0
  br i1 %.not.i28, label %lean_dec.exit26, label %31

31:                                               ; preds = %30
  tail call void @lean_dec_ref_cold(ptr noundef nonnull %7) #8
  br label %lean_dec.exit26

lean_dec.exit26:                                  ; preds = %31, %30, %28, %lean_dec.exit27
  %32 = getelementptr i8, ptr %8, i64 8
  %.val = load i64, ptr %32, align 8, !tbaa !13
  %33 = ptrtoint ptr %8 to i64
  %34 = and i64 %33, 1
  %.not44 = icmp eq i64 %34, 0
  br i1 %.not44, label %35, label %lean_dec.exit25

35:                                               ; preds = %lean_dec.exit26
  %36 = load i32, ptr %8, align 4, !tbaa !8
  %37 = icmp sgt i32 %36, 1
  br i1 %37, label %38, label %40, !prof !11

38:                                               ; preds = %35
  %39 = add nsw i32 %36, -1
  store i32 %39, ptr %8, align 4, !tbaa !8
  br label %lean_dec.exit25

40:                                               ; preds = %35
  %.not.i30 = icmp eq i32 %36, 0
  br i1 %.not.i30, label %lean_dec.exit25, label %41

41:                                               ; preds = %40
  tail call void @lean_dec_ref_cold(ptr noundef nonnull %8) #8
  br label %lean_dec.exit25

lean_dec.exit25:                                  ; preds = %41, %40, %38, %lean_dec.exit26
  %42 = tail call ptr @l_Array_forIn_x27Unsafe_loop___at_Lean_Server_dedupReferences___spec__8(ptr poison, i8 noundef zeroext %13, ptr poison, ptr poison, ptr noundef %4, ptr poison, ptr noundef %6, i64 noundef %.val42, i64 noundef %.val, ptr noundef %9)
  %43 = ptrtoint ptr %6 to i64
  %44 = and i64 %43, 1
  %.not45 = icmp eq i64 %44, 0
  br i1 %.not45, label %45, label %lean_dec.exit24

45:                                               ; preds = %lean_dec.exit25
  %46 = load i32, ptr %6, align 4, !tbaa !8
  %47 = icmp sgt i32 %46, 1
  br i1 %47, label %48, label %50, !prof !11

48:                                               ; preds = %45
  %49 = add nsw i32 %46, -1
  store i32 %49, ptr %6, align 4, !tbaa !8
  br label %lean_dec.exit24

50:                                               ; preds = %45
  %.not.i32 = icmp eq i32 %46, 0
  br i1 %.not.i32, label %lean_dec.exit24, label %51

51:                                               ; preds = %50
  tail call void @lean_dec_ref_cold(ptr noundef nonnull %6) #8
  br label %lean_dec.exit24

lean_dec.exit24:                                  ; preds = %51, %50, %48, %lean_dec.exit25
  %52 = ptrtoint ptr %5 to i64
  %53 = and i64 %52, 1
  %.not46 = icmp eq i64 %53, 0
  br i1 %.not46, label %54, label %lean_dec.exit23

54:                                               ; preds = %lean_dec.exit24
  %55 = load i32, ptr %5, align 4, !tbaa !8
  %56 = icmp sgt i32 %55, 1
  br i1 %56, label %57, label %59, !prof !11

57:                                               ; preds = %54
  %58 = add nsw i32 %55, -1
  store i32 %58, ptr %5, align 4, !tbaa !8
  br label %lean_dec.exit23

59:                                               ; preds = %54
  %.not.i34 = icmp eq i32 %55, 0
  br i1 %.not.i34, label %lean_dec.exit23, label %60

60:                                               ; preds = %59
  tail call void @lean_dec_ref_cold(ptr noundef nonnull %5) #8
  br label %lean_dec.exit23

lean_dec.exit23:                                  ; preds = %60, %59, %57, %lean_dec.exit24
  %61 = ptrtoint ptr %3 to i64
  %62 = and i64 %61, 1
  %.not47 = icmp eq i64 %62, 0
  br i1 %.not47, label %63, label %lean_dec.exit22

63:                                               ; preds = %lean_dec.exit23
  %64 = load i32, ptr %3, align 4, !tbaa !8
  %65 = icmp sgt i32 %64, 1
  br i1 %65, label %66, label %68, !prof !11

66:                                               ; preds = %63
  %67 = add nsw i32 %64, -1
  store i32 %67, ptr %3, align 4, !tbaa !8
  br label %lean_dec.exit22

68:                                               ; preds = %63
  %.not.i36 = icmp eq i32 %64, 0
  br i1 %.not.i36, label %lean_dec.exit22, label %69

69:                                               ; preds = %68
  tail call void @lean_dec_ref_cold(ptr noundef nonnull %3) #8
  br label %lean_dec.exit22

lean_dec.exit22:                                  ; preds = %69, %68, %66, %lean_dec.exit23
  %70 = ptrtoint ptr %2 to i64
  %71 = and i64 %70, 1
  %.not48 = icmp eq i64 %71, 0
  br i1 %.not48, label %72, label %lean_dec.exit21

72:                                               ; preds = %lean_dec.exit22
  %73 = load i32, ptr %2, align 4, !tbaa !8
  %74 = icmp sgt i32 %73, 1
  br i1 %74, label %75, label %77, !prof !11

75:                                               ; preds = %72
  %76 = add nsw i32 %73, -1
  store i32 %76, ptr %2, align 4, !tbaa !8
  br label %lean_dec.exit21

77:                                               ; preds = %72
  %.not.i38 = icmp eq i32 %73, 0
  br i1 %.not.i38, label %lean_dec.exit21, label %78

78:                                               ; preds = %77
  tail call void @lean_dec_ref_cold(ptr noundef nonnull %2) #8
  br label %lean_dec.exit21

lean_dec.exit21:                                  ; preds = %78, %77, %75, %lean_dec.exit22
  %79 = ptrtoint ptr %0 to i64
  %80 = and i64 %79, 1
  %.not49 = icmp eq i64 %80, 0
  br i1 %.not49, label %81, label %lean_dec.exit

81:                                               ; preds = %lean_dec.exit21
  %82 = load i32, ptr %0, align 4, !tbaa !8
  %83 = icmp sgt i32 %82, 1
  br i1 %83, label %84, label %86, !prof !11

84:                                               ; preds = %81
  %85 = add nsw i32 %82, -1
  store i32 %85, ptr %0, align 4, !tbaa !8
  br label %lean_dec.exit

86:                                               ; preds = %81
  %.not.i40 = icmp eq i32 %82, 0
  br i1 %.not.i40, label %lean_dec.exit, label %87

87:                                               ; preds = %86
  tail call void @lean_dec_ref_cold(ptr noundef nonnull %0) #8
  br label %lean_dec.exit

lean_dec.exit:                                    ; preds = %87, %86, %84, %lean_dec.exit21
  ret ptr %42
}